(lp0
(lp1
ccopy_reg
_reconstructor
p2
(cwithout_gpmem
PlotData
p3
cdill.dill
_load_type
p4
(S'TupleType'
p5
tp6
Rp7
(F2.1244661146445787
F1.4498207177522362
(F-11.944554
tp8
(F0.02929081103082229
tp9
tp10
tp11
Rp12
ag2
(g3
g7
(F0.47999615664592943
F1.866899156927961
(F-11.944554
tp13
(F0.02929081103082229
tp14
tp15
tp16
Rp17
aa(lp18
g2
(g3
g7
(F0.47999615664592943
F1.866899156927961
(F-11.944554
F0.346217
tp19
(F0.02929081103082229
F1.0375435625944567
tp20
tp21
tp22
Rp23
ag2
(g3
g7
(F1.3214344438662018
F1.605229101536363
(F-11.944554
F0.346217
tp24
(F0.02929081103082229
F1.0375435625944567
tp25
tp26
tp27
Rp28
aa(lp29
g2
(g3
g7
(F1.3214344438662018
F1.605229101536363
(F-11.944554
F0.346217
F6.584956
tp30
(F0.02929081103082229
F1.0375435625944567
F-0.7272965337076369
tp31
tp32
tp33
Rp34
ag2
(g3
g7
(F1.704341324750343
F2.1057612059936366
(F-11.944554
F0.346217
F6.584956
tp35
(F0.02929081103082229
F1.0375435625944567
F-0.7272965337076369
tp36
tp37
tp38
Rp39
aa(lp40
g2
(g3
g7
(F1.704341324750343
F2.1057612059936366
(F-11.944554
F0.346217
F6.584956
F11.170096
tp41
(F0.02929081103082229
F1.0375435625944567
F-0.7272965337076369
F-0.1450862082564257
tp42
tp43
tp44
Rp45
ag2
(g3
g7
(F1.9267264384894394
F1.965353866434616
(F-11.944554
F0.346217
F6.584956
F11.170096
tp46
(F0.02929081103082229
F1.0375435625944567
F-0.7272965337076369
F-0.1450862082564257
tp47
tp48
tp49
Rp50
aa(lp51
g2
(g3
g7
(F1.9267264384894394
F1.965353866434616
(F-11.944554
F0.346217
F6.584956
F11.170096
F18.191687
tp52
(F0.02929081103082229
F1.0375435625944567
F-0.7272965337076369
F-0.1450862082564257
F0.2172506859150164
tp53
tp54
tp55
Rp56
ag2
(g3
g7
(F0.02473977549213974
F1.2606415209777588
(F-11.944554
F0.346217
F6.584956
F11.170096
F18.191687
tp57
(F0.02929081103082229
F1.0375435625944567
F-0.7272965337076369
F-0.1450862082564257
F0.2172506859150164
tp58
tp59
tp60
Rp61
aa(lp62
g2
(g3
g7
(F0.02473977549213974
F1.2606415209777588
(F-11.944554
F0.346217
F6.584956
F11.170096
F18.191687
F-15.045452
tp63
(F0.02929081103082229
F1.0375435625944567
F-0.7272965337076369
F-0.1450862082564257
F0.2172506859150164
F0.36852501858955
tp64
tp65
tp66
Rp67
ag2
(g3
g7
(F-0.11011204172828774
F1.7236750587211045
(F-11.944554
F0.346217
F6.584956
F11.170096
F18.191687
F-15.045452
tp68
(F0.02929081103082229
F1.0375435625944567
F-0.7272965337076369
F-0.1450862082564257
F0.2172506859150164
F0.36852501858955
tp69
tp70
tp71
Rp72
aa(lp73
g2
(g3
g7
(F-0.11011204172828774
F1.7236750587211045
(F-11.944554
F0.346217
F6.584956
F11.170096
F18.191687
F-15.045452
F-3.957325
tp74
(F0.02929081103082229
F1.0375435625944567
F-0.7272965337076369
F-0.1450862082564257
F0.2172506859150164
F0.36852501858955
F-0.009114090478496777
tp75
tp76
tp77
Rp78
ag2
(g3
g7
(F0.18201416205760054
F-0.9731393900816155
(F-11.944554
F0.346217
F6.584956
F11.170096
F18.191687
F-15.045452
F-3.957325
tp79
(F0.02929081103082229
F1.0375435625944567
F-0.7272965337076369
F-0.1450862082564257
F0.2172506859150164
F0.36852501858955
F-0.009114090478496777
tp80
tp81
tp82
Rp83
aa(lp84
g2
(g3
g7
(F0.18201416205760054
F-0.9731393900816155
(F-11.944554
F0.346217
F6.584956
F11.170096
F18.191687
F-15.045452
F-3.957325
F16.838
tp85
(F0.02929081103082229
F1.0375435625944567
F-0.7272965337076369
F-0.1450862082564257
F0.2172506859150164
F0.36852501858955
F-0.009114090478496777
F0.38391291642165065
tp86
tp87
tp88
Rp89
ag2
(g3
g7
(F1.8578843456330596
F1.6284597220333874
(F-11.944554
F0.346217
F6.584956
F11.170096
F18.191687
F-15.045452
F-3.957325
F16.838
tp90
(F0.02929081103082229
F1.0375435625944567
F-0.7272965337076369
F-0.1450862082564257
F0.2172506859150164
F0.36852501858955
F-0.009114090478496777
F0.38391291642165065
tp91
tp92
tp93
Rp94
aa(lp95
g2
(g3
g7
(F1.8578843456330596
F1.6284597220333874
(F-11.944554
F0.346217
F6.584956
F11.170096
F18.191687
F-15.045452
F-3.957325
F16.838
F-19.911211
tp96
(F0.02929081103082229
F1.0375435625944567
F-0.7272965337076369
F-0.1450862082564257
F0.2172506859150164
F0.36852501858955
F-0.009114090478496777
F0.38391291642165065
F-0.03438373084938014
tp97
tp98
tp99
Rp100
ag2
(g3
g7
(F-2.1773646646918148
F0.2452432196704348
(F-11.944554
F0.346217
F6.584956
F11.170096
F18.191687
F-15.045452
F-3.957325
F16.838
F-19.911211
tp101
(F0.02929081103082229
F1.0375435625944567
F-0.7272965337076369
F-0.1450862082564257
F0.2172506859150164
F0.36852501858955
F-0.009114090478496777
F0.38391291642165065
F-0.03438373084938014
tp102
tp103
tp104
Rp105
aa(lp106
g2
(g3
g7
(F-2.1773646646918148
F0.2452432196704348
(F-11.944554
F0.346217
F6.584956
F11.170096
F18.191687
F-15.045452
F-3.957325
F16.838
F-19.911211
F-1.066926
tp107
(F0.02929081103082229
F1.0375435625944567
F-0.7272965337076369
F-0.1450862082564257
F0.2172506859150164
F0.36852501858955
F-0.009114090478496777
F0.38391291642165065
F-0.03438373084938014
F0.8519354906497951
tp108
tp109
tp110
Rp111
ag2
(g3
g7
(F-0.2444379124945635
F1.0903871419562274
(F-11.944554
F0.346217
F6.584956
F11.170096
F18.191687
F-15.045452
F-3.957325
F16.838
F-19.911211
F-1.066926
tp112
(F0.02929081103082229
F1.0375435625944567
F-0.7272965337076369
F-0.1450862082564257
F0.2172506859150164
F0.36852501858955
F-0.009114090478496777
F0.38391291642165065
F-0.03438373084938014
F0.8519354906497951
tp113
tp114
tp115
Rp116
aa(lp117
g2
(g3
g7
(F-0.2444379124945635
F1.0903871419562274
(F-11.944554
F0.346217
F6.584956
F11.170096
F18.191687
F-15.045452
F-3.957325
F16.838
F-19.911211
F-1.066926
F-7.277426
tp118
(F0.02929081103082229
F1.0375435625944567
F-0.7272965337076369
F-0.1450862082564257
F0.2172506859150164
F0.36852501858955
F-0.009114090478496777
F0.38391291642165065
F-0.03438373084938014
F0.8519354906497951
F-0.5796805764648013
tp119
tp120
tp121
Rp122
ag2
(g3
g7
(F-0.2444379124945635
F1.499049284826509
(F-11.944554
F0.346217
F6.584956
F11.170096
F18.191687
F-15.045452
F-3.957325
F16.838
F-19.911211
F-1.066926
F-7.277426
tp123
(F0.02929081103082229
F1.0375435625944567
F-0.7272965337076369
F-0.1450862082564257
F0.2172506859150164
F0.36852501858955
F-0.009114090478496777
F0.38391291642165065
F-0.03438373084938014
F0.8519354906497951
F-0.5796805764648013
tp124
tp125
tp126
Rp127
aa(lp128
g2
(g3
g7
(F-0.2444379124945635
F1.499049284826509
(F-11.944554
F0.346217
F6.584956
F11.170096
F18.191687
F-15.045452
F-3.957325
F16.838
F-19.911211
F-1.066926
F-7.277426
F-1.817606
tp129
(F0.02929081103082229
F1.0375435625944567
F-0.7272965337076369
F-0.1450862082564257
F0.2172506859150164
F0.36852501858955
F-0.009114090478496777
F0.38391291642165065
F-0.03438373084938014
F0.8519354906497951
F-0.5796805764648013
F0.6594725096575912
tp130
tp131
tp132
Rp133
ag2
(g3
g7
(F-0.4188183132762207
F1.4548066462336284
(F-11.944554
F0.346217
F6.584956
F11.170096
F18.191687
F-15.045452
F-3.957325
F16.838
F-19.911211
F-1.066926
F-7.277426
F-1.817606
tp134
(F0.02929081103082229
F1.0375435625944567
F-0.7272965337076369
F-0.1450862082564257
F0.2172506859150164
F0.36852501858955
F-0.009114090478496777
F0.38391291642165065
F-0.03438373084938014
F0.8519354906497951
F-0.5796805764648013
F0.6594725096575912
tp135
tp136
tp137
Rp138
aa(lp139
g2
(g3
g7
(F-0.4188183132762207
F1.4548066462336284
(F-11.944554
F0.346217
F6.584956
F11.170096
F18.191687
F-15.045452
F-3.957325
F16.838
F-19.911211
F-1.066926
F-7.277426
F-1.817606
F0.339969
tp140
(F0.02929081103082229
F1.0375435625944567
F-0.7272965337076369
F-0.1450862082564257
F0.2172506859150164
F0.36852501858955
F-0.009114090478496777
F0.38391291642165065
F-0.03438373084938014
F0.8519354906497951
F-0.5796805764648013
F0.6594725096575912
F1.037377224900011
tp141
tp142
tp143
Rp144
ag2
(g3
g7
(F-0.667998414752226
F1.5063663213955818
(F-11.944554
F0.346217
F6.584956
F11.170096
F18.191687
F-15.045452
F-3.957325
F16.838
F-19.911211
F-1.066926
F-7.277426
F-1.817606
F0.339969
tp145
(F0.02929081103082229
F1.0375435625944567
F-0.7272965337076369
F-0.1450862082564257
F0.2172506859150164
F0.36852501858955
F-0.009114090478496777
F0.38391291642165065
F-0.03438373084938014
F0.8519354906497951
F-0.5796805764648013
F0.6594725096575912
F1.037377224900011
tp146
tp147
tp148
Rp149
aa(lp150
g2
(g3
g7
(F-0.667998414752226
F1.5063663213955818
(F-11.944554
F0.346217
F6.584956
F11.170096
F18.191687
F-15.045452
F-3.957325
F16.838
F-19.911211
F-1.066926
F-7.277426
F-1.817606
F0.339969
F-1.207587
tp151
(F0.02929081103082229
F1.0375435625944567
F-0.7272965337076369
F-0.1450862082564257
F0.2172506859150164
F0.36852501858955
F-0.009114090478496777
F0.38391291642165065
F-0.03438373084938014
F0.8519354906497951
F-0.5796805764648013
F0.6594725096575912
F1.037377224900011
F0.8197000883932276
tp152
tp153
tp154
Rp155
ag2
(g3
g7
(F-0.38710954859486596
F1.459328033703899
(F-11.944554
F0.346217
F6.584956
F11.170096
F18.191687
F-15.045452
F-3.957325
F16.838
F-19.911211
F-1.066926
F-7.277426
F-1.817606
F0.339969
F-1.207587
tp156
(F0.02929081103082229
F1.0375435625944567
F-0.7272965337076369
F-0.1450862082564257
F0.2172506859150164
F0.36852501858955
F-0.009114090478496777
F0.38391291642165065
F-0.03438373084938014
F0.8519354906497951
F-0.5796805764648013
F0.6594725096575912
F1.037377224900011
F0.8197000883932276
tp157
tp158
tp159
Rp160
aa(lp161
g2
(g3
g7
(F-0.38710954859486596
F1.459328033703899
(F-11.944554
F0.346217
F6.584956
F11.170096
F18.191687
F-15.045452
F-3.957325
F16.838
F-19.911211
F-1.066926
F-7.277426
F-1.817606
F0.339969
F-1.207587
F15.225754
tp162
(F0.02929081103082229
F1.0375435625944567
F-0.7272965337076369
F-0.1450862082564257
F0.2172506859150164
F0.36852501858955
F-0.009114090478496777
F0.38391291642165065
F-0.03438373084938014
F0.8519354906497951
F-0.5796805764648013
F0.6594725096575912
F1.037377224900011
F0.8197000883932276
F0.4577981763106343
tp163
tp164
tp165
Rp166
ag2
(g3
g7
(F-0.38710954859486596
F1.4277481154895806
(F-11.944554
F0.346217
F6.584956
F11.170096
F18.191687
F-15.045452
F-3.957325
F16.838
F-19.911211
F-1.066926
F-7.277426
F-1.817606
F0.339969
F-1.207587
F15.225754
tp167
(F0.02929081103082229
F1.0375435625944567
F-0.7272965337076369
F-0.1450862082564257
F0.2172506859150164
F0.36852501858955
F-0.009114090478496777
F0.38391291642165065
F-0.03438373084938014
F0.8519354906497951
F-0.5796805764648013
F0.6594725096575912
F1.037377224900011
F0.8197000883932276
F0.4577981763106343
tp168
tp169
tp170
Rp171
aa.