(lp0
(lp1
ccopy_reg
_reconstructor
p2
(cgppaper_plugin
BayesOptPlotData
p3
cdill.dill
_load_type
p4
(S'TupleType'
p5
tp6
Rp7
(F0.4441418287807725
F0.44123976563136613
(F-9.610591878948235
tp8
(F-0.3916066043606669
tp9
tp10
tp11
Rp12
ag2
(g3
g7
(F1.9175047212260028
F1.817200513982758
(F-9.610591878948235
tp13
(F-0.3916066043606669
tp14
tp15
tp16
Rp17
aa(lp18
g2
(g3
g7
(F1.9175047212260028
F1.817200513982758
(F-9.610591878948235
F16.272615448334108
tp19
(F-0.3916066043606669
F0.4287907811978396
tp20
tp21
tp22
Rp23
ag2
(g3
g7
(F-0.02450062407464287
F1.5094088216195365
(F-9.610591878948235
F16.272615448334108
tp24
(F-0.3916066043606669
F0.4287907811978396
tp25
tp26
tp27
Rp28
aa(lp29
g2
(g3
g7
(F-0.02450062407464287
F1.5094088216195365
(F-9.610591878948235
F16.272615448334108
F-2.34397267817193
tp30
(F-0.3916066043606669
F0.4287907811978396
F0.5015856163177262
tp31
tp32
tp33
Rp34
ag2
(g3
g7
(F-0.06619364252763688
F-1.5942534272402773
(F-9.610591878948235
F16.272615448334108
F-2.34397267817193
tp35
(F-0.3916066043606669
F0.4287907811978396
F0.5015856163177262
tp36
tp37
tp38
Rp39
aa(lp40
g2
(g3
g7
(F-0.06619364252763688
F-1.5942534272402773
(F-9.610591878948235
F16.272615448334108
F-2.34397267817193
F-19.20110411716412
tp41
(F-0.3916066043606669
F0.4287907811978396
F0.5015856163177262
F0.055257649558468076
tp42
tp43
tp44
Rp45
ag2
(g3
g7
(F1.2936997731264355
F2.106640397443088
(F-9.610591878948235
F16.272615448334108
F-2.34397267817193
F-19.20110411716412
tp46
(F-0.3916066043606669
F0.4287907811978396
F0.5015856163177262
F0.055257649558468076
tp47
tp48
tp49
Rp50
aa(lp51
g2
(g3
g7
(F1.2936997731264355
F2.106640397443088
(F-9.610591878948235
F16.272615448334108
F-2.34397267817193
F-19.20110411716412
F8.801184778317378
tp52
(F-0.3916066043606669
F0.4287907811978396
F0.5015856163177262
F0.055257649558468076
F-0.6564472591974106
tp53
tp54
tp55
Rp56
ag2
(g3
g7
(F-0.4969138666474525
F0.484183053858629
(F-9.610591878948235
F16.272615448334108
F-2.34397267817193
F-19.20110411716412
F8.801184778317378
tp57
(F-0.3916066043606669
F0.4287907811978396
F0.5015856163177262
F0.055257649558468076
F-0.6564472591974106
tp58
tp59
tp60
Rp61
aa(lp62
g2
(g3
g7
(F-0.4969138666474525
F0.484183053858629
(F-9.610591878948235
F16.272615448334108
F-2.34397267817193
F-19.20110411716412
F8.801184778317378
F-6.913560325256389
tp63
(F-0.3916066043606669
F0.4287907811978396
F0.5015856163177262
F0.055257649558468076
F-0.6564472591974106
F-0.5674405097892057
tp64
tp65
tp66
Rp67
ag2
(g3
g7
(F0.1686983136544215
F1.4072241484512364
(F-9.610591878948235
F16.272615448334108
F-2.34397267817193
F-19.20110411716412
F8.801184778317378
F-6.913560325256389
tp68
(F-0.3916066043606669
F0.4287907811978396
F0.5015856163177262
F0.055257649558468076
F-0.6564472591974106
F-0.5674405097892057
tp69
tp70
tp71
Rp72
aa(lp73
g2
(g3
g7
(F0.1686983136544215
F1.4072241484512364
(F-9.610591878948235
F16.272615448334108
F-2.34397267817193
F-19.20110411716412
F8.801184778317378
F-6.913560325256389
F-0.6161523026530702
tp74
(F-0.3916066043606669
F0.4287907811978396
F0.5015856163177262
F0.055257649558468076
F-0.6564472591974106
F-0.5674405097892057
F0.9405014684760371
tp75
tp76
tp77
Rp78
ag2
(g3
g7
(F0.7139441110452864
F1.2023922304928192
(F-9.610591878948235
F16.272615448334108
F-2.34397267817193
F-19.20110411716412
F8.801184778317378
F-6.913560325256389
F-0.6161523026530702
tp79
(F-0.3916066043606669
F0.4287907811978396
F0.5015856163177262
F0.055257649558468076
F-0.6564472591974106
F-0.5674405097892057
F0.9405014684760371
tp80
tp81
tp82
Rp83
aa(lp84
g2
(g3
g7
(F0.7139441110452864
F1.2023922304928192
(F-9.610591878948235
F16.272615448334108
F-2.34397267817193
F-19.20110411716412
F8.801184778317378
F-6.913560325256389
F-0.6161523026530702
F2.2989215160162324
tp85
(F-0.3916066043606669
F0.4287907811978396
F0.5015856163177262
F0.055257649558468076
F-0.6564472591974106
F-0.5674405097892057
F0.9405014684760371
F0.709544592884448
tp86
tp87
tp88
Rp89
ag2
(g3
g7
(F1.1554983663294498
F1.7098938620276602
(F-9.610591878948235
F16.272615448334108
F-2.34397267817193
F-19.20110411716412
F8.801184778317378
F-6.913560325256389
F-0.6161523026530702
F2.2989215160162324
tp90
(F-0.3916066043606669
F0.4287907811978396
F0.5015856163177262
F0.055257649558468076
F-0.6564472591974106
F-0.5674405097892057
F0.9405014684760371
F0.709544592884448
tp91
tp92
tp93
Rp94
aa(lp95
g2
(g3
g7
(F1.1554983663294498
F1.7098938620276602
(F-9.610591878948235
F16.272615448334108
F-2.34397267817193
F-19.20110411716412
F8.801184778317378
F-6.913560325256389
F-0.6161523026530702
F2.2989215160162324
F-14.358301923094876
tp96
(F-0.3916066043606669
F0.4287907811978396
F0.5015856163177262
F0.055257649558468076
F-0.6564472591974106
F-0.5674405097892057
F0.9405014684760371
F0.709544592884448
F0.3386428092426601
tp97
tp98
tp99
Rp100
ag2
(g3
g7
(F-0.9084104176459963
F1.191734779225584
(F-9.610591878948235
F16.272615448334108
F-2.34397267817193
F-19.20110411716412
F8.801184778317378
F-6.913560325256389
F-0.6161523026530702
F2.2989215160162324
F-14.358301923094876
tp101
(F-0.3916066043606669
F0.4287907811978396
F0.5015856163177262
F0.055257649558468076
F-0.6564472591974106
F-0.5674405097892057
F0.9405014684760371
F0.709544592884448
F0.3386428092426601
tp102
tp103
tp104
Rp105
aa(lp106
g2
(g3
g7
(F-0.9084104176459963
F1.191734779225584
(F-9.610591878948235
F16.272615448334108
F-2.34397267817193
F-19.20110411716412
F8.801184778317378
F-6.913560325256389
F-0.6161523026530702
F2.2989215160162324
F-14.358301923094876
F0.45573332734070604
tp107
(F-0.3916066043606669
F0.4287907811978396
F0.5015856163177262
F0.055257649558468076
F-0.6564472591974106
F-0.5674405097892057
F0.9405014684760371
F0.709544592884448
F0.3386428092426601
F1.0393939534090013
tp108
tp109
tp110
Rp111
ag2
(g3
g7
(F-1.9894862920730483
F0.7581285897920195
(F-9.610591878948235
F16.272615448334108
F-2.34397267817193
F-19.20110411716412
F8.801184778317378
F-6.913560325256389
F-0.6161523026530702
F2.2989215160162324
F-14.358301923094876
F0.45573332734070604
tp112
(F-0.3916066043606669
F0.4287907811978396
F0.5015856163177262
F0.055257649558468076
F-0.6564472591974106
F-0.5674405097892057
F0.9405014684760371
F0.709544592884448
F0.3386428092426601
F1.0393939534090013
tp113
tp114
tp115
Rp116
aa(lp117
g2
(g3
g7
(F-1.9894862920730483
F0.7581285897920195
(F-9.610591878948235
F16.272615448334108
F-2.34397267817193
F-19.20110411716412
F8.801184778317378
F-6.913560325256389
F-0.6161523026530702
F2.2989215160162324
F-14.358301923094876
F0.45573332734070604
F0.3895214472776267
tp118
(F-0.3916066043606669
F0.4287907811978396
F0.5015856163177262
F0.055257649558468076
F-0.6564472591974106
F-0.5674405097892057
F0.9405014684760371
F0.709544592884448
F0.3386428092426601
F1.0393939534090013
F1.03851687337165
tp119
tp120
tp121
Rp122
ag2
(g3
g7
(F-0.5678916377554832
F0.9971768071663609
(F-9.610591878948235
F16.272615448334108
F-2.34397267817193
F-19.20110411716412
F8.801184778317378
F-6.913560325256389
F-0.6161523026530702
F2.2989215160162324
F-14.358301923094876
F0.45573332734070604
F0.3895214472776267
tp123
(F-0.3916066043606669
F0.4287907811978396
F0.5015856163177262
F0.055257649558468076
F-0.6564472591974106
F-0.5674405097892057
F0.9405014684760371
F0.709544592884448
F0.3386428092426601
F1.0393939534090013
F1.03851687337165
tp124
tp125
tp126
Rp127
aa(lp128
g2
(g3
g7
(F-0.5678916377554832
F0.9971768071663609
(F-9.610591878948235
F16.272615448334108
F-2.34397267817193
F-19.20110411716412
F8.801184778317378
F-6.913560325256389
F-0.6161523026530702
F2.2989215160162324
F-14.358301923094876
F0.45573332734070604
F0.3895214472776267
F17.9040857819067
tp129
(F-0.3916066043606669
F0.4287907811978396
F0.5015856163177262
F0.055257649558468076
F-0.6564472591974106
F-0.5674405097892057
F0.9405014684760371
F0.709544592884448
F0.3386428092426601
F1.0393939534090013
F1.03851687337165
F0.25779103751826005
tp130
tp131
tp132
Rp133
ag2
(g3
g7
(F-0.535211915134629
F0.958540581529441
(F-9.610591878948235
F16.272615448334108
F-2.34397267817193
F-19.20110411716412
F8.801184778317378
F-6.913560325256389
F-0.6161523026530702
F2.2989215160162324
F-14.358301923094876
F0.45573332734070604
F0.3895214472776267
F17.9040857819067
tp134
(F-0.3916066043606669
F0.4287907811978396
F0.5015856163177262
F0.055257649558468076
F-0.6564472591974106
F-0.5674405097892057
F0.9405014684760371
F0.709544592884448
F0.3386428092426601
F1.0393939534090013
F1.03851687337165
F0.25779103751826005
tp135
tp136
tp137
Rp138
aa(lp139
g2
(g3
g7
(F-0.535211915134629
F0.958540581529441
(F-9.610591878948235
F16.272615448334108
F-2.34397267817193
F-19.20110411716412
F8.801184778317378
F-6.913560325256389
F-0.6161523026530702
F2.2989215160162324
F-14.358301923094876
F0.45573332734070604
F0.3895214472776267
F17.9040857819067
F-1.3885585375676257
tp140
(F-0.3916066043606669
F0.4287907811978396
F0.5015856163177262
F0.055257649558468076
F-0.6564472591974106
F-0.5674405097892057
F0.9405014684760371
F0.709544592884448
F0.3386428092426601
F1.0393939534090013
F1.03851687337165
F0.25779103751826005
F0.7754028460974327
tp141
tp142
tp143
Rp144
ag2
(g3
g7
(F-0.638827282701107
F1.0430585267359094
(F-9.610591878948235
F16.272615448334108
F-2.34397267817193
F-19.20110411716412
F8.801184778317378
F-6.913560325256389
F-0.6161523026530702
F2.2989215160162324
F-14.358301923094876
F0.45573332734070604
F0.3895214472776267
F17.9040857819067
F-1.3885585375676257
tp145
(F-0.3916066043606669
F0.4287907811978396
F0.5015856163177262
F0.055257649558468076
F-0.6564472591974106
F-0.5674405097892057
F0.9405014684760371
F0.709544592884448
F0.3386428092426601
F1.0393939534090013
F1.03851687337165
F0.25779103751826005
F0.7754028460974327
tp146
tp147
tp148
Rp149
aa(lp150
g2
(g3
g7
(F-0.638827282701107
F1.0430585267359094
(F-9.610591878948235
F16.272615448334108
F-2.34397267817193
F-19.20110411716412
F8.801184778317378
F-6.913560325256389
F-0.6161523026530702
F2.2989215160162324
F-14.358301923094876
F0.45573332734070604
F0.3895214472776267
F17.9040857819067
F-1.3885585375676257
F14.435224611967357
tp151
(F-0.3916066043606669
F0.4287907811978396
F0.5015856163177262
F0.055257649558468076
F-0.6564472591974106
F-0.5674405097892057
F0.9405014684760371
F0.709544592884448
F0.3386428092426601
F1.0393939534090013
F1.03851687337165
F0.25779103751826005
F0.7754028460974327
F0.42643480182685034
tp152
tp153
tp154
Rp155
ag2
(g3
g7
(F-0.8828507517772398
F1.0430585267359094
(F-9.610591878948235
F16.272615448334108
F-2.34397267817193
F-19.20110411716412
F8.801184778317378
F-6.913560325256389
F-0.6161523026530702
F2.2989215160162324
F-14.358301923094876
F0.45573332734070604
F0.3895214472776267
F17.9040857819067
F-1.3885585375676257
F14.435224611967357
tp156
(F-0.3916066043606669
F0.4287907811978396
F0.5015856163177262
F0.055257649558468076
F-0.6564472591974106
F-0.5674405097892057
F0.9405014684760371
F0.709544592884448
F0.3386428092426601
F1.0393939534090013
F1.03851687337165
F0.25779103751826005
F0.7754028460974327
F0.42643480182685034
tp157
tp158
tp159
Rp160
aa(lp161
g2
(g3
g7
(F-0.8828507517772398
F1.0430585267359094
(F-9.610591878948235
F16.272615448334108
F-2.34397267817193
F-19.20110411716412
F8.801184778317378
F-6.913560325256389
F-0.6161523026530702
F2.2989215160162324
F-14.358301923094876
F0.45573332734070604
F0.3895214472776267
F17.9040857819067
F-1.3885585375676257
F14.435224611967357
F-16.265118071535806
tp162
(F-0.3916066043606669
F0.4287907811978396
F0.5015856163177262
F0.055257649558468076
F-0.6564472591974106
F-0.5674405097892057
F0.9405014684760371
F0.709544592884448
F0.3386428092426601
F1.0393939534090013
F1.03851687337165
F0.25779103751826005
F0.7754028460974327
F0.42643480182685034
F0.3520468108827274
tp163
tp164
tp165
Rp166
ag2
(g3
g7
(F-0.8828507517772398
F1.047516036071173
(F-9.610591878948235
F16.272615448334108
F-2.34397267817193
F-19.20110411716412
F8.801184778317378
F-6.913560325256389
F-0.6161523026530702
F2.2989215160162324
F-14.358301923094876
F0.45573332734070604
F0.3895214472776267
F17.9040857819067
F-1.3885585375676257
F14.435224611967357
F-16.265118071535806
tp167
(F-0.3916066043606669
F0.4287907811978396
F0.5015856163177262
F0.055257649558468076
F-0.6564472591974106
F-0.5674405097892057
F0.9405014684760371
F0.709544592884448
F0.3386428092426601
F1.0393939534090013
F1.03851687337165
F0.25779103751826005
F0.7754028460974327
F0.42643480182685034
F0.3520468108827274
tp168
tp169
tp170
Rp171
aa.