(lp0
ccopy_reg
_reconstructor
p1
(c__main__
PlotData
p2
cdill.dill
_load_type
p3
(S'TupleType'
p4
tp5
Rp6
(F0.9615205568656646
F-0.22327321952554838
(F-15.196153312
tp7
(F0.3712176165478954
tp8
tp9
tp10
Rp11
ag1
(g2
g6
(F-1.0648201562635775
F2.2695651067835776
(F-15.196153312
F16.6993352703
tp12
(F0.3712176165478954
F0.39657713634539266
tp13
tp14
tp15
Rp16
ag1
(g2
g6
(F0.9538195526394615
F2.2695651067835776
(F-15.196153312
F16.6993352703
F10.6517711108
tp17
(F0.3712176165478954
F0.39657713634539266
F-0.2710428880568249
tp18
tp19
tp20
Rp21
ag1
(g2
g6
(F0.9538195526394615
F2.2695651067835776
(F-15.196153312
F16.6993352703
F10.6517711108
F-6.10275279608
tp22
(F0.3712176165478954
F0.39657713634539266
F-0.2710428880568249
F-0.49291678516787557
tp23
tp24
tp25
Rp26
ag1
(g2
g6
(F0.9538195526394615
F0.8527819271494868
(F-15.196153312
F16.6993352703
F10.6517711108
F-6.10275279608
F19.8927345212
tp27
(F0.3712176165478954
F0.39657713634539266
F-0.2710428880568249
F-0.49291678516787557
F-0.03778353724564096
tp28
tp29
tp30
Rp31
ag1
(g2
g6
(F0.9538195526394615
F1.202541758456295
(F-15.196153312
F16.6993352703
F10.6517711108
F-6.10275279608
F19.8927345212
F-12.4669768916
tp32
(F0.3712176165478954
F0.39657713634539266
F-0.2710428880568249
F-0.49291678516787557
F-0.03778353724564096
F0.1179662553088731
tp33
tp34
tp35
Rp36
ag1
(g2
g6
(F0.9538195526394615
F1.202541758456295
(F-15.196153312
F16.6993352703
F10.6517711108
F-6.10275279608
F19.8927345212
F-12.4669768916
F4.92570302665
tp37
(F0.3712176165478954
F0.39657713634539266
F-0.2710428880568249
F-0.49291678516787557
F-0.03778353724564096
F0.1179662553088731
F-0.3680741896357886
tp38
tp39
tp40
Rp41
ag1
(g2
g6
(F0.6296405791416783
F1.202541758456295
(F-15.196153312
F16.6993352703
F10.6517711108
F-6.10275279608
F19.8927345212
F-12.4669768916
F4.92570302665
F-19.8835787404
tp42
(F0.3712176165478954
F0.39657713634539266
F-0.2710428880568249
F-0.49291678516787557
F-0.03778353724564096
F0.1179662553088731
F-0.3680741896357886
F-0.03098723200847906
tp43
tp44
tp45
Rp46
ag1
(g2
g6
(F0.6296405791416783
F1.4466510967914679
(F-15.196153312
F16.6993352703
F10.6517711108
F-6.10275279608
F19.8927345212
F-12.4669768916
F4.92570302665
F-19.8835787404
F6.98903777134
tp47
(F0.3712176165478954
F0.39657713634539266
F-0.2710428880568249
F-0.49291678516787557
F-0.03778353724564096
F0.1179662553088731
F-0.3680741896357886
F-0.03098723200847906
F-0.7593650391014997
tp48
tp49
tp50
Rp51
ag1
(g2
g6
(F0.6296405791416783
F1.4466510967914679
(F-15.196153312
F16.6993352703
F10.6517711108
F-6.10275279608
F19.8927345212
F-12.4669768916
F4.92570302665
F-19.8835787404
F6.98903777134
F14.6832939244
tp52
(F0.3712176165478954
F0.39657713634539266
F-0.2710428880568249
F-0.49291678516787557
F-0.03778353724564096
F0.1179662553088731
F-0.3680741896357886
F-0.03098723200847906
F-0.7593650391014997
F0.4414366989623684
tp53
tp54
tp55
Rp56
ag1
(g2
g6
(F-1.5955453934611303
F1.4466510967914679
(F-15.196153312
F16.6993352703
F10.6517711108
F-6.10275279608
F19.8927345212
F-12.4669768916
F4.92570302665
F-19.8835787404
F6.98903777134
F14.6832939244
F-16.894480577
tp57
(F0.3712176165478954
F0.39657713634539266
F-0.2710428880568249
F-0.49291678516787557
F-0.03778353724564096
F0.1179662553088731
F-0.3680741896357886
F-0.03098723200847906
F-0.7593650391014997
F0.4414366989623684
F0.3123428793356638
tp58
tp59
tp60
Rp61
ag1
(g2
g6
(F-1.5955453934611303
F1.4466510967914679
(F-15.196153312
F16.6993352703
F10.6517711108
F-6.10275279608
F19.8927345212
F-12.4669768916
F4.92570302665
F-19.8835787404
F6.98903777134
F14.6832939244
F-16.894480577
F-0.71999497929
tp62
(F0.3712176165478954
F0.39657713634539266
F-0.2710428880568249
F-0.49291678516787557
F-0.03778353724564096
F0.1179662553088731
F-0.3680741896357886
F-0.03098723200847906
F-0.7593650391014997
F0.4414366989623684
F0.3123428793356638
F0.9222401152230418
tp63
tp64
tp65
Rp66
ag1
(g2
g6
(F-1.5955453934611303
F1.4466510967914679
(F-15.196153312
F16.6993352703
F10.6517711108
F-6.10275279608
F19.8927345212
F-12.4669768916
F4.92570302665
F-19.8835787404
F6.98903777134
F14.6832939244
F-16.894480577
F-0.71999497929
F-0.674795995247
tp67
(F0.3712176165478954
F0.39657713634539266
F-0.2710428880568249
F-0.49291678516787557
F-0.03778353724564096
F0.1179662553088731
F-0.3680741896357886
F-0.03098723200847906
F-0.7593650391014997
F0.4414366989623684
F0.3123428793356638
F0.9222401152230418
F0.9303547815696389
tp68
tp69
tp70
Rp71
ag1
(g2
g6
(F0.28870446244853887
F1.4466510967914679
(F-15.196153312
F16.6993352703
F10.6517711108
F-6.10275279608
F19.8927345212
F-12.4669768916
F4.92570302665
F-19.8835787404
F6.98903777134
F14.6832939244
F-16.894480577
F-0.71999497929
F-0.674795995247
F0.186252648834
tp72
(F0.3712176165478954
F0.39657713634539266
F-0.2710428880568249
F-0.49291678516787557
F-0.03778353724564096
F0.1179662553088731
F-0.3680741896357886
F-0.03098723200847906
F-0.7593650391014997
F0.4414366989623684
F0.3123428793356638
F0.9222401152230418
F0.9303547815696389
F1.0312541507701458
tp73
tp74
tp75
Rp76
ag1
(g2
g6
(F1.8001408683734552
F1.4466510967914679
(F-15.196153312
F16.6993352703
F10.6517711108
F-6.10275279608
F19.8927345212
F-12.4669768916
F4.92570302665
F-19.8835787404
F6.98903777134
F14.6832939244
F-16.894480577
F-0.71999497929
F-0.674795995247
F0.186252648834
F0.180793684808
tp77
(F0.3712176165478954
F0.39657713634539266
F-0.2710428880568249
F-0.49291678516787557
F-0.03778353724564096
F0.1179662553088731
F-0.3680741896357886
F-0.03098723200847906
F-0.7593650391014997
F0.4414366989623684
F0.3123428793356638
F0.9222401152230418
F0.9303547815696389
F1.0312541507701458
F1.0309657365386342
tp78
tp79
tp80
Rp81
a.