(lp0
ccopy_reg
_reconstructor
p1
(c__main__
PlotData
p2
cdill.dill
_load_type
p3
(S'TupleType'
p4
tp5
Rp6
(F2.228924352517616
F2.2754477541101985
(F-8.46861445283
tp7
(F-0.5344680896841613
tp8
tp9
tp10
Rp11
ag1
(g2
g6
(F1.333314887056109
F1.63625044536249
(F-8.46861445283
F17.5056049386
tp12
(F-0.5344680896841613
F0.3100971900137574
tp13
tp14
tp15
Rp16
ag1
(g2
g6
(F2.1397270331862472
F0.5390255786188747
(F-8.46861445283
F17.5056049386
F13.5687679002
tp17
(F-0.5344680896841613
F0.3100971900137574
F0.3373392978001374
tp18
tp19
tp20
Rp21
ag1
(g2
g6
(F1.505540171582169
F2.2597037455115663
(F-8.46861445283
F17.5056049386
F13.5687679002
F-5.9242396004
tp22
(F-0.5344680896841613
F0.3100971900137574
F0.3373392978001374
F-0.4677505829212747
tp23
tp24
tp25
Rp26
ag1
(g2
g6
(F2.2618434088884323
F2.035395441776592
(F-8.46861445283
F17.5056049386
F13.5687679002
F-5.9242396004
F19.7358148113
tp27
(F-0.5344680896841613
F0.3100971900137574
F0.3373392978001374
F-0.4677505829212747
F-0.014912207802147021
tp28
tp29
tp30
Rp31
ag1
(g2
g6
(F1.3825203767435204
F2.035395441776592
(F-8.46861445283
F17.5056049386
F13.5687679002
F-5.9242396004
F19.7358148113
F15.2123547583
tp32
(F-0.5344680896841613
F0.3100971900137574
F0.3373392978001374
F-0.4677505829212747
F-0.014912207802147021
F0.4576626368000878
tp33
tp34
tp35
Rp36
ag1
(g2
g6
(F1.6435987876296563
F2.035395441776592
(F-8.46861445283
F17.5056049386
F13.5687679002
F-5.9242396004
F19.7358148113
F15.2123547583
F-19.928220177
tp37
(F-0.5344680896841613
F0.3100971900137574
F0.3373392978001374
F-0.4677505829212747
F-0.014912207802147021
F0.4576626368000878
F-0.03646907050645834
tp38
tp39
tp40
Rp41
ag1
(g2
g6
(F1.0359595537547985
F2.035395441776592
(F-8.46861445283
F17.5056049386
F13.5687679002
F-5.9242396004
F19.7358148113
F15.2123547583
F-19.928220177
F15.1494035704
tp42
(F-0.5344680896841613
F0.3100971900137574
F0.3373392978001374
F-0.4677505829212747
F-0.014912207802147021
F0.4576626368000878
F-0.03646907050645834
F0.45684579292931177
tp43
tp44
tp45
Rp46
ag1
(g2
g6
(F0.5807695243036535
F2.070295615928344
(F-8.46861445283
F17.5056049386
F13.5687679002
F-5.9242396004
F19.7358148113
F15.2123547583
F-19.928220177
F15.1494035704
F15.0098130511
tp47
(F-0.5344680896841613
F0.3100971900137574
F0.3373392978001374
F-0.4677505829212747
F-0.014912207802147021
F0.4576626368000878
F-0.03646907050645834
F0.45684579292931177
F0.4539687979263159
tp48
tp49
tp50
Rp51
ag1
(g2
g6
(F0.5807695243036535
F2.070295615928344
(F-8.46861445283
F17.5056049386
F13.5687679002
F-5.9242396004
F19.7358148113
F15.2123547583
F-19.928220177
F15.1494035704
F15.0098130511
F15.062987975
tp52
(F-0.5344680896841613
F0.3100971900137574
F0.3373392978001374
F-0.4677505829212747
F-0.014912207802147021
F0.4576626368000878
F-0.03646907050645834
F0.45684579292931177
F0.4539687979263159
F0.45523863060819814
tp53
tp54
tp55
Rp56
ag1
(g2
g6
(F0.5807695243036535
F2.2361096955417366
(F-8.46861445283
F17.5056049386
F13.5687679002
F-5.9242396004
F19.7358148113
F15.2123547583
F-19.928220177
F15.1494035704
F15.0098130511
F15.062987975
F15.4734165432
tp57
(F-0.5344680896841613
F0.3100971900137574
F0.3373392978001374
F-0.4677505829212747
F-0.014912207802147021
F0.4576626368000878
F-0.03646907050645834
F0.45684579292931177
F0.4539687979263159
F0.45523863060819814
F0.4579076708615803
tp58
tp59
tp60
Rp61
ag1
(g2
g6
(F0.5807695243036535
F2.2361096955417366
(F-8.46861445283
F17.5056049386
F13.5687679002
F-5.9242396004
F19.7358148113
F15.2123547583
F-19.928220177
F15.1494035704
F15.0098130511
F15.062987975
F15.4734165432
F15.6256923381
tp62
(F-0.5344680896841613
F0.3100971900137574
F0.3373392978001374
F-0.4677505829212747
F-0.014912207802147021
F0.4576626368000878
F-0.03646907050645834
F0.45684579292931177
F0.4539687979263159
F0.45523863060819814
F0.4579076708615803
F0.45575530778263856
tp63
tp64
tp65
Rp66
ag1
(g2
g6
(F0.5807695243036535
F2.2361096955417366
(F-8.46861445283
F17.5056049386
F13.5687679002
F-5.9242396004
F19.7358148113
F15.2123547583
F-19.928220177
F15.1494035704
F15.0098130511
F15.062987975
F15.4734165432
F15.6256923381
F15.9254309643
tp67
(F-0.5344680896841613
F0.3100971900137574
F0.3373392978001374
F-0.4677505829212747
F-0.014912207802147021
F0.4576626368000878
F-0.03646907050645834
F0.45684579292931177
F0.4539687979263159
F0.45523863060819814
F0.4579076708615803
F0.45575530778263856
F0.4467471291579409
tp68
tp69
tp70
Rp71
ag1
(g2
g6
(F0.5807695243036535
F2.221561333062341
(F-8.46861445283
F17.5056049386
F13.5687679002
F-5.9242396004
F19.7358148113
F15.2123547583
F-19.928220177
F15.1494035704
F15.0098130511
F15.062987975
F15.4734165432
F15.6256923381
F15.9254309643
F15.4905367032
tp72
(F-0.5344680896841613
F0.3100971900137574
F0.3373392978001374
F-0.4677505829212747
F-0.014912207802147021
F0.4576626368000878
F-0.03646907050645834
F0.45684579292931177
F0.4539687979263159
F0.45523863060819814
F0.4579076708615803
F0.45575530778263856
F0.4467471291579409
F0.4577490489786919
tp73
tp74
tp75
Rp76
ag1
(g2
g6
(F0.5807695243036535
F1.8873724966736412
(F-8.46861445283
F17.5056049386
F13.5687679002
F-5.9242396004
F19.7358148113
F15.2123547583
F-19.928220177
F15.1494035704
F15.0098130511
F15.062987975
F15.4734165432
F15.6256923381
F15.9254309643
F15.4905367032
F15.2798120823
tp77
(F-0.5344680896841613
F0.3100971900137574
F0.3373392978001374
F-0.4677505829212747
F-0.014912207802147021
F0.4576626368000878
F-0.03646907050645834
F0.45684579292931177
F0.4539687979263159
F0.45523863060819814
F0.4579076708615803
F0.45575530778263856
F0.4467471291579409
F0.4577490489786919
F0.45820894491329894
tp78
tp79
tp80
Rp81
a.