(lp0
ccopy_reg
_reconstructor
p1
(c__main__
PlotData
p2
cdill.dill
_load_type
p3
(S'TupleType'
p4
tp5
Rp6
(F1.5590926726059164
F1.6905642987486291
(F-6.90732695165
tp7
(F-0.5671175179777157
tp8
tp9
tp10
Rp11
ag1
(g2
g6
(F1.487446692206114
F1.6905642987486291
(F-6.90732695165
F13.4050213982
tp12
(F-0.5671175179777157
F0.3143328408230327
tp13
tp14
tp15
Rp16
ag1
(g2
g6
(F2.055379809158872
F2.2456094083283427
(F-6.90732695165
F13.4050213982
F2.74817935339
tp17
(F-0.5671175179777157
F0.3143328408230327
F0.5123486075942788
tp18
tp19
tp20
Rp21
ag1
(g2
g6
(F1.1724971400062925
F2.2456094083283427
(F-6.90732695165
F13.4050213982
F2.74817935339
F-19.8503203273
tp22
(F-0.5671175179777157
F0.3143328408230327
F0.5123486075942788
F-0.026885269357634786
tp23
tp24
tp25
Rp26
ag1
(g2
g6
(F1.1724971400062925
F2.2456094083283427
(F-6.90732695165
F13.4050213982
F2.74817935339
F-19.8503203273
F4.24760591559
tp27
(F-0.5671175179777157
F0.3143328408230327
F0.5123486075942788
F-0.026885269357634786
F-0.12772946854296896
tp28
tp29
tp30
Rp31
ag1
(g2
g6
(F1.8974601246626934
F2.2456094083283427
(F-6.90732695165
F13.4050213982
F2.74817935339
F-19.8503203273
F4.24760591559
F19.5888053446
tp32
(F-0.5671175179777157
F0.3143328408230327
F0.5123486075942788
F-0.026885269357634786
F-0.12772946854296896
F0.006870927752745167
tp33
tp34
tp35
Rp36
ag1
(g2
g6
(F-0.9194350274268309
F2.2456094083283427
(F-6.90732695165
F13.4050213982
F2.74817935339
F-19.8503203273
F4.24760591559
F19.5888053446
F-1.29518051823
tp37
(F-0.5671175179777157
F0.3143328408230327
F0.5123486075942788
F-0.026885269357634786
F-0.12772946854296896
F0.006870927752745167
F0.7986394678986767
tp38
tp39
tp40
Rp41
ag1
(g2
g6
(F-0.9194350274268309
F2.212651748385384
(F-6.90732695165
F13.4050213982
F2.74817935339
F-19.8503203273
F4.24760591559
F19.5888053446
F-1.29518051823
F-15.6026974896
tp42
(F-0.5671175179777157
F0.3143328408230327
F0.5123486075942788
F-0.026885269357634786
F-0.12772946854296896
F0.006870927752745167
F0.7986394678986767
F0.37166874413044004
tp43
tp44
tp45
Rp46
ag1
(g2
g6
(F-0.9194350274268309
F1.8218316232188285
(F-6.90732695165
F13.4050213982
F2.74817935339
F-19.8503203273
F4.24760591559
F19.5888053446
F-1.29518051823
F-15.6026974896
F16.6196043058
tp47
(F-0.5671175179777157
F0.3143328408230327
F0.5123486075942788
F-0.026885269357634786
F-0.12772946854296896
F0.006870927752745167
F0.7986394678986767
F0.37166874413044004
F0.4033902314035111
tp48
tp49
tp50
Rp51
ag1
(g2
g6
(F-1.2178872627065356
F0.8007552447015641
(F-6.90732695165
F13.4050213982
F2.74817935339
F-19.8503203273
F4.24760591559
F19.5888053446
F-1.29518051823
F-15.6026974896
F16.6196043058
F0.56415553045
tp52
(F-0.5671175179777157
F0.3143328408230327
F0.5123486075942788
F-0.026885269357634786
F-0.12772946854296896
F0.006870927752745167
F0.7986394678986767
F0.37166874413044004
F0.4033902314035111
F1.0392141618318302
tp53
tp54
tp55
Rp56
ag1
(g2
g6
(F-1.2178872627065356
F0.8007552447015641
(F-6.90732695165
F13.4050213982
F2.74817935339
F-19.8503203273
F4.24760591559
F19.5888053446
F-1.29518051823
F-15.6026974896
F16.6196043058
F0.56415553045
F1.04813021815
tp57
(F-0.5671175179777157
F0.3143328408230327
F0.5123486075942788
F-0.026885269357634786
F-0.12772946854296896
F0.006870927752745167
F0.7986394678986767
F0.37166874413044004
F0.4033902314035111
F1.0392141618318302
F1.0131389059665594
tp58
tp59
tp60
Rp61
ag1
(g2
g6
(F-1.2178872627065356
F1.3643881917363043
(F-6.90732695165
F13.4050213982
F2.74817935339
F-19.8503203273
F4.24760591559
F19.5888053446
F-1.29518051823
F-15.6026974896
F16.6196043058
F0.56415553045
F1.04813021815
F0.829872195372
tp62
(F-0.5671175179777157
F0.3143328408230327
F0.5123486075942788
F-0.026885269357634786
F-0.12772946854296896
F0.006870927752745167
F0.7986394678986767
F0.37166874413044004
F0.4033902314035111
F1.0392141618318302
F1.0131389059665594
F1.030092928675753
tp63
tp64
tp65
Rp66
ag1
(g2
g6
(F-1.720876485652191
F1.3643881917363043
(F-6.90732695165
F13.4050213982
F2.74817935339
F-19.8503203273
F4.24760591559
F19.5888053446
F-1.29518051823
F-15.6026974896
F16.6196043058
F0.56415553045
F1.04813021815
F0.829872195372
F9.59311012674
tp67
(F-0.5671175179777157
F0.3143328408230327
F0.5123486075942788
F-0.026885269357634786
F-0.12772946854296896
F0.006870927752745167
F0.7986394678986767
F0.37166874413044004
F0.4033902314035111
F1.0392141618318302
F1.0131389059665594
F1.030092928675753
F-0.5127724783325254
tp68
tp69
tp70
Rp71
ag1
(g2
g6
(F-1.720876485652191
F1.3643881917363043
(F-6.90732695165
F13.4050213982
F2.74817935339
F-19.8503203273
F4.24760591559
F19.5888053446
F-1.29518051823
F-15.6026974896
F16.6196043058
F0.56415553045
F1.04813021815
F0.829872195372
F9.59311012674
F-10.756683542
tp72
(F-0.5671175179777157
F0.3143328408230327
F0.5123486075942788
F-0.026885269357634786
F-0.12772946854296896
F0.006870927752745167
F0.7986394678986767
F0.37166874413044004
F0.4033902314035111
F1.0392141618318302
F1.0131389059665594
F1.030092928675753
F-0.5127724783325254
F-0.19090621249783143
tp73
tp74
tp75
Rp76
ag1
(g2
g6
(F-1.720876485652191
F0.3158063225546354
(F-6.90732695165
F13.4050213982
F2.74817935339
F-19.8503203273
F4.24760591559
F19.5888053446
F-1.29518051823
F-15.6026974896
F16.6196043058
F0.56415553045
F1.04813021815
F0.829872195372
F9.59311012674
F-10.756683542
F-17.4828163138
tp77
(F-0.5671175179777157
F0.3143328408230327
F0.5123486075942788
F-0.026885269357634786
F-0.12772946854296896
F0.006870927752745167
F0.7986394678986767
F0.37166874413044004
F0.4033902314035111
F1.0392141618318302
F1.0131389059665594
F1.030092928675753
F-0.5127724783325254
F-0.19090621249783143
F0.2597662936539766
tp78
tp79
tp80
Rp81
a.